target datalayout = "e-m:e-p270:32:32-p271:32:32-p272:64:64-i64:64-i128:128-f80:128-n8:16:32:64-S128"
target triple = "x86_64-pc-linux-gnu"

%struct.CodedBitstreamFragment = type { ptr, i64, i64, ptr, i32, i32, ptr }
%struct.CodedBitstreamUnit = type { i32, ptr, i64, i64, ptr, ptr, ptr }

; Function Attrs: nounwind uwtable
define internal void @cbs_unit_uninit(ptr noundef %0) #3 {
  %2 = alloca ptr, align 8
  store ptr %0, ptr %2, align 8, !tbaa !50
  %3 = load ptr, ptr %2, align 8, !tbaa !50
  %4 = getelementptr inbounds nuw %struct.CodedBitstreamUnit, ptr %3, i32 0, i32 6
  call void @av_refstruct_unref(ptr noundef %4)
  %5 = load ptr, ptr %2, align 8, !tbaa !50
  %6 = getelementptr inbounds nuw %struct.CodedBitstreamUnit, ptr %5, i32 0, i32 5
  store ptr null, ptr %6, align 8, !tbaa !51
  %7 = load ptr, ptr %2, align 8, !tbaa !50
  %8 = getelementptr inbounds nuw %struct.CodedBitstreamUnit, ptr %7, i32 0, i32 4
  call void @av_buffer_unref(ptr noundef %8)
  %9 = load ptr, ptr %2, align 8, !tbaa !50
  %10 = getelementptr inbounds nuw %struct.CodedBitstreamUnit, ptr %9, i32 0, i32 1
  store ptr null, ptr %10, align 8, !tbaa !53
  %11 = load ptr, ptr %2, align 8, !tbaa !50
  %12 = getelementptr inbounds nuw %struct.CodedBitstreamUnit, ptr %11, i32 0, i32 2
  store i64 0, ptr %12, align 8, !tbaa !54
  %13 = load ptr, ptr %2, align 8, !tbaa !50
  %14 = getelementptr inbounds nuw %struct.CodedBitstreamUnit, ptr %13, i32 0, i32 3
  store i64 0, ptr %14, align 8, !tbaa !55
  ret void
}

; Function Attrs: nounwind uwtable
define void @ff_cbs_fragment_reset(ptr noundef %0) #3 {
  %2 = alloca ptr, align 8
  %3 = alloca i32, align 4
  store ptr %0, ptr %2, align 8, !tbaa !39
  call void @llvm.lifetime.start.p0(i64 4, ptr %3) #13
  store i32 0, ptr %3, align 4, !tbaa !10
  br label %4

4:                                                ; preds = %17, %1
  %5 = load i32, ptr %3, align 4, !tbaa !10
  %6 = load ptr, ptr %2, align 8, !tbaa !39
  %7 = getelementptr inbounds nuw %struct.CodedBitstreamFragment, ptr %6, i32 0, i32 4
  %8 = load i32, ptr %7, align 8, !tbaa !41
  %9 = icmp slt i32 %5, %8
  br i1 %9, label %10, label %20

10:                                               ; preds = %4
  %11 = load ptr, ptr %2, align 8, !tbaa !39
  %12 = getelementptr inbounds nuw %struct.CodedBitstreamFragment, ptr %11, i32 0, i32 6
  %13 = load ptr, ptr %12, align 8, !tbaa !45
  %14 = load i32, ptr %3, align 4, !tbaa !10
  %15 = sext i32 %14 to i64
  %16 = getelementptr inbounds %struct.CodedBitstreamUnit, ptr %13, i64 %15
  call void @cbs_unit_uninit(ptr noundef %16)
  br label %17

17:                                               ; preds = %10
  %18 = load i32, ptr %3, align 4, !tbaa !10
  %19 = add nsw i32 %18, 1
  store i32 %19, ptr %3, align 4, !tbaa !10
  br label %4, !llvm.loop !46

20:                                               ; preds = %4
  %21 = load ptr, ptr %2, align 8, !tbaa !39
  %22 = getelementptr inbounds nuw %struct.CodedBitstreamFragment, ptr %21, i32 0, i32 4
  store i32 0, ptr %22, align 8, !tbaa !41
  %23 = load ptr, ptr %2, align 8, !tbaa !39
  %24 = getelementptr inbounds nuw %struct.CodedBitstreamFragment, ptr %23, i32 0, i32 3
  call void @av_buffer_unref(ptr noundef %24)
  %25 = load ptr, ptr %2, align 8, !tbaa !39
  %26 = getelementptr inbounds nuw %struct.CodedBitstreamFragment, ptr %25, i32 0, i32 0
  store ptr null, ptr %26, align 8, !tbaa !47
  %27 = load ptr, ptr %2, align 8, !tbaa !39
  %28 = getelementptr inbounds nuw %struct.CodedBitstreamFragment, ptr %27, i32 0, i32 1
  store i64 0, ptr %28, align 8, !tbaa !48
  %29 = load ptr, ptr %2, align 8, !tbaa !39
  %30 = getelementptr inbounds nuw %struct.CodedBitstreamFragment, ptr %29, i32 0, i32 2
  store i64 0, ptr %30, align 8, !tbaa !49
  call void @llvm.lifetime.end.p0(i64 4, ptr %3) #13
  ret void
}