; Function Attrs: nounwind uwtable
define void @ff_cbs_fragment_reset(ptr noundef %0) local_unnamed_addr #3 {
  %2 = getelementptr inbounds nuw i8, ptr %0, i64 32
  %3 = load i32, ptr %2, align 8, !tbaa !34
  %4 = icmp sgt i32 %3, 0
  br i1 %4, label %.lr.ph, label %._crit_edge

.lr.ph:                                           ; preds = %1
  %5 = getelementptr inbounds nuw i8, ptr %0, i64 40
  br label %6

6:                                                ; preds = %.lr.ph, %6
  %indvars.iv = phi i64 [ 0, %.lr.ph ], [ %indvars.iv.next, %6 ]
  %7 = load ptr, ptr %5, align 8, !tbaa !38
  %8 = getelementptr inbounds nuw %struct.CodedBitstreamUnit, ptr %7, i64 %indvars.iv
  %9 = getelementptr inbounds nuw i8, ptr %8, i64 48
  tail call void @av_refstruct_unref(ptr noundef nonnull %9) #10
  %10 = getelementptr inbounds nuw i8, ptr %8, i64 40
  store ptr null, ptr %10, align 8, !tbaa !39
  %11 = getelementptr inbounds nuw i8, ptr %8, i64 32
  tail call void @av_buffer_unref(ptr noundef nonnull %11) #10
  %12 = getelementptr inbounds nuw i8, ptr %8, i64 8
  tail call void @llvm.memset.p0.i64(ptr noundef nonnull align 8 dereferenceable(24) %12, i8 0, i64 24, i1 false)
  %indvars.iv.next = add nuw nsw i64 %indvars.iv, 1
  %13 = load i32, ptr %2, align 8, !tbaa !34
  %14 = sext i32 %13 to i64
  %15 = icmp slt i64 %indvars.iv.next, %14
  br i1 %15, label %6, label %._crit_edge, !llvm.loop !41

._crit_edge:                                      ; preds = %6, %1
  store i32 0, ptr %2, align 8, !tbaa !34
  %16 = getelementptr inbounds nuw i8, ptr %0, i64 24
  tail call void @av_buffer_unref(ptr noundef nonnull %16) #10
  tail call void @llvm.memset.p0.i64(ptr noundef nonnull align 8 dereferenceable(24) %0, i8 0, i64 24, i1 false)
  ret void
}